target datalayout = "e-m:e-p270:32:32-p271:32:32-p272:64:64-i64:64-i128:128-f80:128-n8:16:32:64-S128"
target triple = "x86_64-pc-linux-gnu"

%struct.ReplicationSlotCtlData = type { [1 x %struct.ReplicationSlot] }
%struct.ReplicationSlot = type { i8, i8, i32, i8, i8, i32, i32, %struct.ReplicationSlotPersistentData, %struct.LWLock, %struct.ConditionVariable, i32, i64, i64, i64, i64, i64 }
%struct.ReplicationSlotPersistentData = type { %struct.nameData, i32, i32, i32, i32, i64, i32, i64, i64, i8, %struct.nameData, i8, i8 }
%struct.nameData = type { [64 x i8] }
%struct.LWLock = type { i16, %struct.pg_atomic_uint32, %struct.proclist_head }
%struct.pg_atomic_uint32 = type { i32 }
%struct.proclist_head = type { i32, i32 }
%struct.ConditionVariable = type { i8, %struct.proclist_head }
%union.LWLockPadded = type { %struct.LWLock, [112 x i8] }

@ReplicationSlotCtl = dso_local global ptr null, align 8
@max_replication_slots = dso_local global i32 10, align 4
@.str.6 = private unnamed_addr constant [7 x i8] c"slot.c\00", align 1
@MainLWLockArray = external global ptr, align 8
@MyProcPid = external global i32, align 4
@__func__.ReplicationSlotCleanup = private unnamed_addr constant [23 x i8] c"ReplicationSlotCleanup\00", align 1

; Function Attrs: inlinehint nounwind uwtable
define internal i32 @tas(ptr noundef %0) #7 {
  %2 = alloca ptr, align 8
  %3 = alloca i8, align 1
  store ptr %0, ptr %2, align 8
  call void @llvm.lifetime.start.p0(i64 1, ptr %3) #12
  store i8 1, ptr %3, align 1
  %4 = load i8, ptr %3, align 1
  %5 = load ptr, ptr %2, align 8
  %6 = call i8 asm sideeffect "\09lock\09\09\09\0A\09xchgb\09$0,$1\09\0A", "=q,=*m,0,*m,~{memory},~{cc},~{dirflag},~{fpsr},~{flags}"(ptr elementtype(i8) %5, i8 %4, ptr elementtype(i8) %5) #12, !srcloc !13
  store i8 %6, ptr %3, align 1
  %7 = load i8, ptr %3, align 1
  %8 = zext i8 %7 to i32
  call void @llvm.lifetime.end.p0(i64 1, ptr %3) #12
  ret i32 %8
}

; Function Attrs: nounwind uwtable
define dso_local void @ReplicationSlotCleanup(i1 noundef zeroext %0) #0 {
  %2 = alloca i8, align 1
  %3 = alloca i32, align 4
  %4 = alloca ptr, align 8
  %5 = alloca i32, align 4
  %6 = zext i1 %0 to i8
  store i8 %6, ptr %2, align 1
  call void @llvm.lifetime.start.p0(i64 4, ptr %3) #12
  br label %7

7:                                                ; preds = %70, %1
  %8 = load ptr, ptr @MainLWLockArray, align 8
  %9 = getelementptr inbounds %union.LWLockPadded, ptr %8, i64 37
  %10 = call zeroext i1 @LWLockAcquire(ptr noundef %9, i32 noundef 1)
  store i32 0, ptr %3, align 4
  br label %11

11:                                               ; preds = %73, %7
  %12 = load i32, ptr %3, align 4
  %13 = load i32, ptr @max_replication_slots, align 4
  %14 = icmp slt i32 %12, %13
  br i1 %14, label %15, label %76

15:                                               ; preds = %11
  call void @llvm.lifetime.start.p0(i64 8, ptr %4) #12
  %16 = load ptr, ptr @ReplicationSlotCtl, align 8
  %17 = getelementptr inbounds nuw %struct.ReplicationSlotCtlData, ptr %16, i32 0, i32 0
  %18 = load i32, ptr %3, align 4
  %19 = sext i32 %18 to i64
  %20 = getelementptr inbounds [1 x %struct.ReplicationSlot], ptr %17, i64 0, i64 %19
  store ptr %20, ptr %4, align 8
  %21 = load ptr, ptr %4, align 8
  %22 = getelementptr inbounds nuw %struct.ReplicationSlot, ptr %21, i32 0, i32 1
  %23 = load i8, ptr %22, align 1, !range !4, !noundef !5
  %24 = trunc i8 %23 to i1
  br i1 %24, label %26, label %25

25:                                               ; preds = %15
  store i32 5, ptr %5, align 4
  br label %70

26:                                               ; preds = %15
  %27 = load ptr, ptr %4, align 8
  %28 = getelementptr inbounds nuw %struct.ReplicationSlot, ptr %27, i32 0, i32 0
  %29 = call i32 @tas(ptr noundef %28)
  %30 = icmp ne i32 %29, 0
  br i1 %30, label %31, label %35

31:                                               ; preds = %26
  %32 = load ptr, ptr %4, align 8
  %33 = getelementptr inbounds nuw %struct.ReplicationSlot, ptr %32, i32 0, i32 0
  %34 = call i32 @s_lock(ptr noundef %33, ptr noundef @.str.6, i32 noundef 771, ptr noundef @__func__.ReplicationSlotCleanup)
  br label %36

35:                                               ; preds = %26
  br label %36

36:                                               ; preds = %35, %31
  %37 = load ptr, ptr %4, align 8
  %38 = getelementptr inbounds nuw %struct.ReplicationSlot, ptr %37, i32 0, i32 2
  %39 = load i32, ptr %38, align 4
  %40 = load i32, ptr @MyProcPid, align 4
  %41 = icmp eq i32 %39, %40
  br i1 %41, label %42, label %63

42:                                               ; preds = %36
  %43 = load i8, ptr %2, align 1, !range !4, !noundef !5
  %44 = trunc i8 %43 to i1
  br i1 %44, label %45, label %52

45:                                               ; preds = %42
  %46 = load ptr, ptr %4, align 8
  %47 = getelementptr inbounds nuw %struct.ReplicationSlot, ptr %46, i32 0, i32 7
  %48 = getelementptr inbounds nuw %struct.ReplicationSlotPersistentData, ptr %47, i32 0, i32 11
  %49 = load i8, ptr %48, align 1
  %50 = sext i8 %49 to i32
  %51 = icmp ne i32 %50, 0
  br i1 %51, label %52, label %63

52:                                               ; preds = %45, %42
  br label %53

53:                                               ; preds = %52
  call void asm sideeffect "", "~{memory},~{dirflag},~{fpsr},~{flags}"() #12, !srcloc !21
  %54 = load ptr, ptr %4, align 8
  %55 = getelementptr inbounds nuw %struct.ReplicationSlot, ptr %54, i32 0, i32 0
  store i8 0, ptr %55, align 8
  br label %56

56:                                               ; preds = %53
  br label %57

57:                                               ; preds = %56
  %58 = load ptr, ptr @MainLWLockArray, align 8
  %59 = getelementptr inbounds %union.LWLockPadded, ptr %58, i64 37
  call void @LWLockRelease(ptr noundef %59)
  %60 = load ptr, ptr %4, align 8
  call void @ReplicationSlotDropPtr(ptr noundef %60)
  %61 = load ptr, ptr %4, align 8
  %62 = getelementptr inbounds nuw %struct.ReplicationSlot, ptr %61, i32 0, i32 9
  call void @ConditionVariableBroadcast(ptr noundef %62)
  store i32 2, ptr %5, align 4
  br label %70

63:                                               ; preds = %45, %36
  br label %64

64:                                               ; preds = %63
  call void asm sideeffect "", "~{memory},~{dirflag},~{fpsr},~{flags}"() #12, !srcloc !22
  %65 = load ptr, ptr %4, align 8
  %66 = getelementptr inbounds nuw %struct.ReplicationSlot, ptr %65, i32 0, i32 0
  store i8 0, ptr %66, align 8
  br label %67

67:                                               ; preds = %64
  br label %68

68:                                               ; preds = %67
  br label %69

69:                                               ; preds = %68
  store i32 0, ptr %5, align 4
  br label %70

70:                                               ; preds = %69, %57, %25
  call void @llvm.lifetime.end.p0(i64 8, ptr %4) #12
  %71 = load i32, ptr %5, align 4
  switch i32 %71, label %79 [
    i32 0, label %72
    i32 5, label %73
    i32 2, label %7
  ]

72:                                               ; preds = %70
  br label %73

73:                                               ; preds = %72, %70
  %74 = load i32, ptr %3, align 4
  %75 = add i32 %74, 1
  store i32 %75, ptr %3, align 4
  br label %11, !llvm.loop !23

76:                                               ; preds = %11
  %77 = load ptr, ptr @MainLWLockArray, align 8
  %78 = getelementptr inbounds %union.LWLockPadded, ptr %77, i64 37
  call void @LWLockRelease(ptr noundef %78)
  call void @llvm.lifetime.end.p0(i64 4, ptr %3) #12
  ret void

79:                                               ; preds = %70
  unreachable
}