; Function Attrs: nounwind uwtable
define dso_local void @ReplicationSlotCleanup(i1 noundef zeroext %0) local_unnamed_addr #0 {
  %2 = load ptr, ptr @MainLWLockArray, align 8
  %3 = getelementptr inbounds nuw i8, ptr %2, i64 4736
  %4 = tail call zeroext i1 @LWLockAcquire(ptr noundef nonnull %3, i32 noundef 1) #17
  %5 = load i32, ptr @max_replication_slots, align 4
  %6 = icmp sgt i32 %5, 0
  br i1 %6, label %.lr.ph.lr.ph, label %._crit_edge

.lr.ph.lr.ph:                                     ; preds = %1
  br i1 %0, label %.lr.ph.us, label %.lr.ph

.lr.ph.us:                                        ; preds = %.lr.ph.lr.ph, %.split.us.us
  %7 = phi i32 [ %39, %.split.us.us ], [ %5, %.lr.ph.lr.ph ]
  %.pre34 = load ptr, ptr @ReplicationSlotCtl, align 8
  br label %8

8:                                                ; preds = %28, %.lr.ph.us
  %9 = phi i32 [ %29, %28 ], [ %7, %.lr.ph.us ]
  %10 = phi ptr [ %30, %28 ], [ %.pre34, %.lr.ph.us ]
  %indvars.iv28 = phi i64 [ %indvars.iv.next29, %28 ], [ 0, %.lr.ph.us ]
  %11 = getelementptr inbounds nuw [1 x %struct.ReplicationSlot], ptr %10, i64 0, i64 %indvars.iv28
  %12 = getelementptr inbounds nuw i8, ptr %11, i64 1
  %13 = load i8, ptr %12, align 1, !range !4, !noundef !5
  %14 = trunc nuw i8 %13 to i1
  br i1 %14, label %15, label %28

15:                                               ; preds = %8
  %16 = tail call i8 asm sideeffect "\09lock\09\09\09\0A\09xchgb\09$0,$1\09\0A", "=q,=*m,0,*m,~{memory},~{cc},~{dirflag},~{fpsr},~{flags}"(ptr nonnull elementtype(i8) %11, i8 1, ptr nonnull elementtype(i8) %11) #17, !srcloc !11
  %.not.us.us = icmp eq i8 %16, 0
  br i1 %.not.us.us, label %19, label %17

17:                                               ; preds = %15
  %18 = tail call i32 @s_lock(ptr noundef nonnull %11, ptr noundef nonnull @.str.6, i32 noundef 771, ptr noundef nonnull @__func__.ReplicationSlotCleanup) #17
  br label %19

19:                                               ; preds = %17, %15
  %20 = getelementptr inbounds nuw i8, ptr %11, i64 4
  %21 = load i32, ptr %20, align 4
  %22 = load i32, ptr @MyProcPid, align 4
  %23 = icmp eq i32 %21, %22
  br i1 %23, label %24, label %27

24:                                               ; preds = %19
  %25 = getelementptr inbounds nuw i8, ptr %11, i64 201
  %26 = load i8, ptr %25, align 1
  %.not14.us.us = icmp eq i8 %26, 0
  br i1 %.not14.us.us, label %27, label %.split.us.us

27:                                               ; preds = %24, %19
  tail call void asm sideeffect "", "~{memory},~{dirflag},~{fpsr},~{flags}"() #17, !srcloc !20
  store i8 0, ptr %11, align 8
  %.pre33 = load ptr, ptr @ReplicationSlotCtl, align 8
  %.pre35 = load i32, ptr @max_replication_slots, align 4
  br label %28

28:                                               ; preds = %27, %8
  %29 = phi i32 [ %.pre35, %27 ], [ %9, %8 ]
  %30 = phi ptr [ %.pre33, %27 ], [ %10, %8 ]
  %indvars.iv.next29 = add nuw nsw i64 %indvars.iv28, 1
  %31 = sext i32 %29 to i64
  %32 = icmp slt i64 %indvars.iv.next29, %31
  br i1 %32, label %8, label %._crit_edge, !llvm.loop !21

.split.us.us:                                     ; preds = %24
  tail call void asm sideeffect "", "~{memory},~{dirflag},~{fpsr},~{flags}"() #17, !srcloc !22
  store i8 0, ptr %11, align 8
  %33 = load ptr, ptr @MainLWLockArray, align 8
  %34 = getelementptr inbounds nuw i8, ptr %33, i64 4736
  tail call void @LWLockRelease(ptr noundef nonnull %34) #17
  tail call fastcc void @ReplicationSlotDropPtr(ptr noundef nonnull %11)
  %35 = getelementptr inbounds nuw i8, ptr %11, i64 224
  tail call void @ConditionVariableBroadcast(ptr noundef nonnull %35) #17
  %36 = load ptr, ptr @MainLWLockArray, align 8
  %37 = getelementptr inbounds nuw i8, ptr %36, i64 4736
  %38 = tail call zeroext i1 @LWLockAcquire(ptr noundef nonnull %37, i32 noundef 1) #17
  %39 = load i32, ptr @max_replication_slots, align 4
  %40 = icmp sgt i32 %39, 0
  br i1 %40, label %.lr.ph.us, label %._crit_edge

.lr.ph:                                           ; preds = %.lr.ph.lr.ph, %.split
  %41 = phi i32 [ %64, %.split ], [ %5, %.lr.ph.lr.ph ]
  %.pre31 = load ptr, ptr @ReplicationSlotCtl, align 8
  br label %42

42:                                               ; preds = %.lr.ph, %67
  %43 = phi i32 [ %41, %.lr.ph ], [ %68, %67 ]
  %44 = phi ptr [ %.pre31, %.lr.ph ], [ %69, %67 ]
  %indvars.iv = phi i64 [ 0, %.lr.ph ], [ %indvars.iv.next, %67 ]
  %45 = getelementptr inbounds nuw [1 x %struct.ReplicationSlot], ptr %44, i64 0, i64 %indvars.iv
  %46 = getelementptr inbounds nuw i8, ptr %45, i64 1
  %47 = load i8, ptr %46, align 1, !range !4, !noundef !5
  %48 = trunc nuw i8 %47 to i1
  br i1 %48, label %49, label %67

49:                                               ; preds = %42
  %50 = tail call i8 asm sideeffect "\09lock\09\09\09\0A\09xchgb\09$0,$1\09\0A", "=q,=*m,0,*m,~{memory},~{cc},~{dirflag},~{fpsr},~{flags}"(ptr nonnull elementtype(i8) %45, i8 1, ptr nonnull elementtype(i8) %45) #17, !srcloc !11
  %.not = icmp eq i8 %50, 0
  br i1 %.not, label %53, label %51

51:                                               ; preds = %49
  %52 = tail call i32 @s_lock(ptr noundef nonnull %45, ptr noundef nonnull @.str.6, i32 noundef 771, ptr noundef nonnull @__func__.ReplicationSlotCleanup) #17
  br label %53

53:                                               ; preds = %49, %51
  %54 = getelementptr inbounds nuw i8, ptr %45, i64 4
  %55 = load i32, ptr %54, align 4
  %56 = load i32, ptr @MyProcPid, align 4
  %57 = icmp eq i32 %55, %56
  tail call void asm sideeffect "", "~{memory},~{dirflag},~{fpsr},~{flags}"() #17
  store i8 0, ptr %45, align 8
  br i1 %57, label %.split, label %66

.split:                                           ; preds = %53
  %58 = load ptr, ptr @MainLWLockArray, align 8
  %59 = getelementptr inbounds nuw i8, ptr %58, i64 4736
  tail call void @LWLockRelease(ptr noundef nonnull %59) #17
  tail call fastcc void @ReplicationSlotDropPtr(ptr noundef nonnull %45)
  %60 = getelementptr inbounds nuw i8, ptr %45, i64 224
  tail call void @ConditionVariableBroadcast(ptr noundef nonnull %60) #17
  %61 = load ptr, ptr @MainLWLockArray, align 8
  %62 = getelementptr inbounds nuw i8, ptr %61, i64 4736
  %63 = tail call zeroext i1 @LWLockAcquire(ptr noundef nonnull %62, i32 noundef 1) #17
  %64 = load i32, ptr @max_replication_slots, align 4
  %65 = icmp sgt i32 %64, 0
  br i1 %65, label %.lr.ph, label %._crit_edge

66:                                               ; preds = %53
  %.pre = load ptr, ptr @ReplicationSlotCtl, align 8
  %.pre32 = load i32, ptr @max_replication_slots, align 4
  br label %67

67:                                               ; preds = %66, %42
  %68 = phi i32 [ %.pre32, %66 ], [ %43, %42 ]
  %69 = phi ptr [ %.pre, %66 ], [ %44, %42 ]
  %indvars.iv.next = add nuw nsw i64 %indvars.iv, 1
  %70 = sext i32 %68 to i64
  %71 = icmp slt i64 %indvars.iv.next, %70
  br i1 %71, label %42, label %._crit_edge, !llvm.loop !21

._crit_edge:                                      ; preds = %.split, %67, %.split.us.us, %28, %1
  %72 = load ptr, ptr @MainLWLockArray, align 8
  %73 = getelementptr inbounds nuw i8, ptr %72, i64 4736
  tail call void @LWLockRelease(ptr noundef nonnull %73) #17
  ret void
}